; Function Attrs: mustprogress uwtable
define hidden noundef ptr @_ZN7datalog21check_relation_plugin7mk_fullEP9func_declRKNS_18relation_signatureE(ptr noundef nonnull align 8 dereferenceable(56) %0, ptr noundef %1, ptr noundef nonnull align 8 dereferenceable(8) %2) unnamed_addr #3 align 2 personality ptr @__gxx_personality_v0 {
  %4 = alloca %class.obj_ref, align 8
  %5 = getelementptr inbounds nuw i8, ptr %0, i64 48
  %6 = load ptr, ptr %5, align 8, !tbaa !384
  %7 = load ptr, ptr %6, align 8, !tbaa !3
  %8 = getelementptr inbounds nuw i8, ptr %7, i64 64
  %9 = load ptr, ptr %8, align 8
  %10 = tail call noundef ptr %9(ptr noundef nonnull align 8 dereferenceable(32) %6, ptr noundef %1, ptr noundef nonnull align 8 dereferenceable(8) %2)
  %11 = tail call noalias noundef ptr @_ZN6memory8allocateEm(i64 noundef 64)
  tail call void @_ZN7datalog14check_relationC2ERNS_21check_relation_pluginERKNS_18relation_signatureEPNS_13relation_baseE(ptr noundef nonnull align 8 dereferenceable(64) %11, ptr noundef nonnull align 8 dereferenceable(56) %0, ptr noundef nonnull align 8 dereferenceable(8) %2, ptr noundef %10)
  %12 = getelementptr inbounds nuw i8, ptr %11, i64 48
  %13 = load ptr, ptr %12, align 8, !tbaa !35
  %14 = getelementptr inbounds nuw i8, ptr %0, i64 40
  %15 = load ptr, ptr %14, align 8, !tbaa !43
  %16 = getelementptr inbounds nuw i8, ptr %15, i64 856
  %17 = load ptr, ptr %16, align 8, !tbaa !388
  %.not = icmp eq ptr %13, %17
  br i1 %.not, label %40, label %18

18:                                               ; preds = %3
  call void @llvm.lifetime.start.p0(i64 16, ptr nonnull %4) #24
  %19 = getelementptr inbounds nuw i8, ptr %11, i64 8
  %20 = load ptr, ptr %19, align 8, !tbaa !39, !noalias !389
  call void @_ZNK7datalog21check_relation_plugin6groundERKNS_13relation_baseEP4expr(ptr dead_on_unwind nonnull writable sret(%class.obj_ref) align 8 %4, ptr noundef nonnull align 8 dereferenceable(56) %20, ptr noundef nonnull readonly align 8 dereferenceable(64) %11, ptr noundef %13)
  %21 = load ptr, ptr %4, align 8, !tbaa !35
  %22 = load ptr, ptr %14, align 8, !tbaa !43
  %23 = getelementptr inbounds nuw i8, ptr %22, i64 856
  %24 = load ptr, ptr %23, align 8, !tbaa !388
  invoke void @_ZN7datalog21check_relation_plugin11check_equivEPKcP4exprS4_(ptr noundef nonnull align 8 dereferenceable(56) %0, ptr noundef nonnull @.str.9, ptr noundef %21, ptr noundef %24)
          to label %25 unwind label %38

25:                                               ; preds = %18
  %26 = load ptr, ptr %4, align 8, !tbaa !35
  %.not.i.i = icmp eq ptr %26, null
  br i1 %.not.i.i, label %_ZN7obj_refI4expr11ast_managerED2Ev.exit, label %27

27:                                               ; preds = %25
  %28 = getelementptr inbounds nuw i8, ptr %4, i64 8
  %29 = load ptr, ptr %28, align 8, !tbaa !36
  %30 = getelementptr inbounds nuw i8, ptr %26, i64 8
  %31 = load i32, ptr %30, align 4, !tbaa !37
  %32 = add i32 %31, -1
  store i32 %32, ptr %30, align 4, !tbaa !37
  %33 = icmp eq i32 %32, 0
  br i1 %33, label %34, label %_ZN7obj_refI4expr11ast_managerED2Ev.exit

34:                                               ; preds = %27
  invoke void @_ZN11ast_manager11delete_nodeEP3ast(ptr noundef nonnull align 8 dereferenceable(976) %29, ptr noundef nonnull %26)
          to label %_ZN7obj_refI4expr11ast_managerED2Ev.exit unwind label %35

35:                                               ; preds = %34
  %36 = landingpad { ptr, i32 }
          catch ptr null
  %37 = extractvalue { ptr, i32 } %36, 0
  call void @__clang_call_terminate(ptr %37) #25
  unreachable

_ZN7obj_refI4expr11ast_managerED2Ev.exit:         ; preds = %25, %27, %34
  call void @llvm.lifetime.end.p0(i64 16, ptr nonnull %4) #24
  br label %40

38:                                               ; preds = %18
  %39 = landingpad { ptr, i32 }
          cleanup
  call void @_ZN7obj_refI4expr11ast_managerED2Ev(ptr noundef nonnull align 8 dereferenceable(16) %4) #24
  call void @llvm.lifetime.end.p0(i64 16, ptr nonnull %4) #24
  resume { ptr, i32 } %39

40:                                               ; preds = %_ZN7obj_refI4expr11ast_managerED2Ev.exit, %3
  ret ptr %11
}